target datalayout = "e-m:e-p270:32:32-p271:32:32-p272:64:64-i64:64-i128:128-f80:128-n8:16:32:64-S128"
target triple = "x86_64-pc-linux-gnu"

%struct.cli_htu32 = type { ptr, i64, i64, i64 }
%struct.cli_htu32_element = type { i32, %union.anon }
%union.anon = type { i64 }

; Function Attrs: nounwind uwtable
define internal i32 @hash32shift(i32 noundef %0) #0 {
  %2 = alloca i32, align 4
  store i32 %0, ptr %2, align 4
  %3 = load i32, ptr %2, align 4
  %4 = xor i32 %3, -1
  %5 = load i32, ptr %2, align 4
  %6 = shl i32 %5, 15
  %7 = add i32 %4, %6
  store i32 %7, ptr %2, align 4
  %8 = load i32, ptr %2, align 4
  %9 = load i32, ptr %2, align 4
  %10 = lshr i32 %9, 12
  %11 = xor i32 %8, %10
  store i32 %11, ptr %2, align 4
  %12 = load i32, ptr %2, align 4
  %13 = load i32, ptr %2, align 4
  %14 = shl i32 %13, 2
  %15 = add i32 %12, %14
  store i32 %15, ptr %2, align 4
  %16 = load i32, ptr %2, align 4
  %17 = load i32, ptr %2, align 4
  %18 = lshr i32 %17, 4
  %19 = xor i32 %16, %18
  store i32 %19, ptr %2, align 4
  %20 = load i32, ptr %2, align 4
  %21 = load i32, ptr %2, align 4
  %22 = shl i32 %21, 3
  %23 = add i32 %20, %22
  %24 = load i32, ptr %2, align 4
  %25 = shl i32 %24, 11
  %26 = add i32 %23, %25
  store i32 %26, ptr %2, align 4
  %27 = load i32, ptr %2, align 4
  %28 = load i32, ptr %2, align 4
  %29 = lshr i32 %28, 16
  %30 = xor i32 %27, %29
  store i32 %30, ptr %2, align 4
  %31 = load i32, ptr %2, align 4
  ret i32 %31
}

; Function Attrs: nounwind uwtable
define internal i64 @hash_htu32(i32 noundef %0, i64 noundef %1) #0 {
  %3 = alloca i32, align 4
  %4 = alloca i64, align 8
  %5 = alloca i64, align 8
  store i32 %0, ptr %3, align 4
  store i64 %1, ptr %4, align 8
  %6 = load i32, ptr %3, align 4
  %7 = call i32 @hash32shift(i32 noundef %6)
  %8 = zext i32 %7 to i64
  store i64 %8, ptr %5, align 8
  %9 = load i64, ptr %5, align 8
  %10 = load i64, ptr %4, align 8
  %11 = sub i64 %10, 1
  %12 = and i64 %9, %11
  ret i64 %12
}

; Function Attrs: nounwind uwtable
define ptr @cli_htu32_find(ptr noundef %0, i32 noundef %1) #0 {
  %3 = alloca ptr, align 8
  %4 = alloca ptr, align 8
  %5 = alloca i32, align 4
  %6 = alloca ptr, align 8
  %7 = alloca i64, align 8
  %8 = alloca i64, align 8
  store ptr %0, ptr %4, align 8
  store i32 %1, ptr %5, align 4
  store i64 1, ptr %7, align 8
  %9 = load ptr, ptr %4, align 8
  %10 = icmp ne ptr %9, null
  br i1 %10, label %12, label %11

11:                                               ; preds = %2
  store ptr null, ptr %3, align 8
  br label %61

12:                                               ; preds = %2
  %13 = load i32, ptr %5, align 4
  %14 = load ptr, ptr %4, align 8
  %15 = getelementptr inbounds %struct.cli_htu32, ptr %14, i32 0, i32 1
  %16 = load i64, ptr %15, align 8
  %17 = call i64 @hash_htu32(i32 noundef %13, i64 noundef %16)
  store i64 %17, ptr %8, align 8
  %18 = load ptr, ptr %4, align 8
  %19 = getelementptr inbounds %struct.cli_htu32, ptr %18, i32 0, i32 0
  %20 = load ptr, ptr %19, align 8
  %21 = load i64, ptr %8, align 8
  %22 = getelementptr inbounds %struct.cli_htu32_element, ptr %20, i64 %21
  store ptr %22, ptr %6, align 8
  br label %23

23:                                               ; preds = %54, %12
  %24 = load ptr, ptr %6, align 8
  %25 = getelementptr inbounds %struct.cli_htu32_element, ptr %24, i32 0, i32 0
  %26 = load i32, ptr %25, align 8
  %27 = icmp ne i32 %26, 0
  br i1 %27, label %29, label %28

28:                                               ; preds = %23
  store ptr null, ptr %3, align 8
  br label %61

29:                                               ; preds = %23
  %30 = load i32, ptr %5, align 4
  %31 = load ptr, ptr %6, align 8
  %32 = getelementptr inbounds %struct.cli_htu32_element, ptr %31, i32 0, i32 0
  %33 = load i32, ptr %32, align 8
  %34 = icmp eq i32 %30, %33
  br i1 %34, label %35, label %37

35:                                               ; preds = %29
  %36 = load ptr, ptr %6, align 8
  store ptr %36, ptr %3, align 8
  br label %61

37:                                               ; preds = %29
  %38 = load i64, ptr %8, align 8
  %39 = load i64, ptr %7, align 8
  %40 = add i64 %39, 1
  store i64 %40, ptr %7, align 8
  %41 = add i64 %38, %39
  %42 = load ptr, ptr %4, align 8
  %43 = getelementptr inbounds %struct.cli_htu32, ptr %42, i32 0, i32 1
  %44 = load i64, ptr %43, align 8
  %45 = sub i64 %44, 1
  %46 = and i64 %41, %45
  store i64 %46, ptr %8, align 8
  %47 = load ptr, ptr %4, align 8
  %48 = getelementptr inbounds %struct.cli_htu32, ptr %47, i32 0, i32 0
  %49 = load ptr, ptr %48, align 8
  %50 = load i64, ptr %8, align 8
  %51 = getelementptr inbounds %struct.cli_htu32_element, ptr %49, i64 %50
  store ptr %51, ptr %6, align 8
  br label %52

52:                                               ; preds = %37
  br label %53

53:                                               ; preds = %52
  br label %54

54:                                               ; preds = %53
  %55 = load i64, ptr %7, align 8
  %56 = load ptr, ptr %4, align 8
  %57 = getelementptr inbounds %struct.cli_htu32, ptr %56, i32 0, i32 1
  %58 = load i64, ptr %57, align 8
  %59 = icmp ule i64 %55, %58
  br i1 %59, label %23, label %60

60:                                               ; preds = %54
  store ptr null, ptr %3, align 8
  br label %61

61:                                               ; preds = %60, %35, %28, %11
  %62 = load ptr, ptr %3, align 8
  ret ptr %62
}

; Function Attrs: nounwind uwtable
define void @cli_htu32_delete(ptr noundef %0, i32 noundef %1) #0 {
  %3 = alloca ptr, align 8
  %4 = alloca i32, align 4
  %5 = alloca ptr, align 8
  store ptr %0, ptr %3, align 8
  store i32 %1, ptr %4, align 4
  %6 = load ptr, ptr %3, align 8
  %7 = load i32, ptr %4, align 4
  %8 = call ptr @cli_htu32_find(ptr noundef %6, i32 noundef %7)
  store ptr %8, ptr %5, align 8
  %9 = load ptr, ptr %5, align 8
  %10 = icmp ne ptr %9, null
  br i1 %10, label %11, label %14

11:                                               ; preds = %2
  %12 = load ptr, ptr %5, align 8
  %13 = getelementptr inbounds %struct.cli_htu32_element, ptr %12, i32 0, i32 0
  store i32 -1, ptr %13, align 8
  br label %14

14:                                               ; preds = %11, %2
  ret void
}